target datalayout = "e-m:e-p270:32:32-p271:32:32-p272:64:64-i64:64-i128:128-f80:128-n8:16:32:64-S128"
target triple = "x86_64-pc-linux-gnu"

%struct._zval_struct = type { %union._zend_value, %union.anon, %union.anon.2 }
%union._zend_value = type { i64 }
%union.anon = type { i32 }
%union.anon.2 = type { i32 }

; Function Attrs: alwaysinline nounwind uwtable
define internal zeroext i1 @_zend_handle_numeric_str(ptr noundef %0, i64 noundef %1, ptr noundef %2) #2 {
  %4 = alloca i1, align 1
  %5 = alloca ptr, align 8
  %6 = alloca i64, align 8
  %7 = alloca ptr, align 8
  %8 = alloca ptr, align 8
  %9 = alloca i32, align 4
  store ptr %0, ptr %5, align 8, !tbaa !47
  store i64 %1, ptr %6, align 8, !tbaa !85
  store ptr %2, ptr %7, align 8, !tbaa !83
  call void @llvm.lifetime.start.p0(i64 8, ptr %8) #21
  %10 = load ptr, ptr %5, align 8, !tbaa !47
  store ptr %10, ptr %8, align 8, !tbaa !47
  %11 = load ptr, ptr %8, align 8, !tbaa !47
  %12 = load i8, ptr %11, align 1, !tbaa !44
  %13 = sext i8 %12 to i32
  %14 = icmp sgt i32 %13, 57
  %15 = xor i1 %14, true
  %16 = xor i1 %15, true
  %17 = zext i1 %16 to i32
  %18 = sext i32 %17 to i64
  %19 = call i64 @llvm.expect.i64(i64 %18, i64 1)
  %20 = icmp ne i64 %19, 0
  br i1 %20, label %21, label %22

21:                                               ; preds = %3
  store i1 false, ptr %4, align 1
  store i32 1, ptr %9, align 4
  br label %53

22:                                               ; preds = %3
  %23 = load ptr, ptr %8, align 8, !tbaa !47
  %24 = load i8, ptr %23, align 1, !tbaa !44
  %25 = sext i8 %24 to i32
  %26 = icmp slt i32 %25, 48
  br i1 %26, label %27, label %47

27:                                               ; preds = %22
  %28 = load ptr, ptr %8, align 8, !tbaa !47
  %29 = load i8, ptr %28, align 1, !tbaa !44
  %30 = sext i8 %29 to i32
  %31 = icmp ne i32 %30, 45
  br i1 %31, label %32, label %33

32:                                               ; preds = %27
  store i1 false, ptr %4, align 1
  store i32 1, ptr %9, align 4
  br label %53

33:                                               ; preds = %27
  %34 = load ptr, ptr %8, align 8, !tbaa !47
  %35 = getelementptr inbounds nuw i8, ptr %34, i32 1
  store ptr %35, ptr %8, align 8, !tbaa !47
  %36 = load ptr, ptr %8, align 8, !tbaa !47
  %37 = load i8, ptr %36, align 1, !tbaa !44
  %38 = sext i8 %37 to i32
  %39 = icmp sgt i32 %38, 57
  br i1 %39, label %45, label %40

40:                                               ; preds = %33
  %41 = load ptr, ptr %8, align 8, !tbaa !47
  %42 = load i8, ptr %41, align 1, !tbaa !44
  %43 = sext i8 %42 to i32
  %44 = icmp slt i32 %43, 48
  br i1 %44, label %45, label %46

45:                                               ; preds = %40, %33
  store i1 false, ptr %4, align 1
  store i32 1, ptr %9, align 4
  br label %53

46:                                               ; preds = %40
  br label %47

47:                                               ; preds = %46, %22
  br label %48

48:                                               ; preds = %47
  %49 = load ptr, ptr %5, align 8, !tbaa !47
  %50 = load i64, ptr %6, align 8, !tbaa !85
  %51 = load ptr, ptr %7, align 8, !tbaa !83
  %52 = call zeroext i1 @_zend_handle_numeric_str_ex(ptr noundef %49, i64 noundef %50, ptr noundef %51)
  store i1 %52, ptr %4, align 1
  store i32 1, ptr %9, align 4
  br label %53

53:                                               ; preds = %48, %45, %32, %21
  call void @llvm.lifetime.end.p0(i64 8, ptr %8) #21
  %54 = load i1, ptr %4, align 1
  ret i1 %54
}

; Function Attrs: alwaysinline nounwind uwtable
define internal ptr @zend_symtable_str_update(ptr noundef %0, ptr noundef %1, i64 noundef %2, ptr noundef %3) #2 {
  %5 = alloca ptr, align 8
  %6 = alloca ptr, align 8
  %7 = alloca ptr, align 8
  %8 = alloca i64, align 8
  %9 = alloca ptr, align 8
  %10 = alloca i64, align 8
  %11 = alloca i32, align 4
  store ptr %0, ptr %6, align 8, !tbaa !100
  store ptr %1, ptr %7, align 8, !tbaa !47
  store i64 %2, ptr %8, align 8, !tbaa !85
  store ptr %3, ptr %9, align 8, !tbaa !8
  call void @llvm.lifetime.start.p0(i64 8, ptr %10) #21
  %12 = load ptr, ptr %7, align 8, !tbaa !47
  %13 = load i64, ptr %8, align 8, !tbaa !85
  %14 = call zeroext i1 @_zend_handle_numeric_str(ptr noundef %12, i64 noundef %13, ptr noundef %10)
  br i1 %14, label %15, label %20

15:                                               ; preds = %4
  %16 = load ptr, ptr %6, align 8, !tbaa !100
  %17 = load i64, ptr %10, align 8, !tbaa !85
  %18 = load ptr, ptr %9, align 8, !tbaa !8
  %19 = call ptr @zend_hash_index_update(ptr noundef %16, i64 noundef %17, ptr noundef %18)
  store ptr %19, ptr %5, align 8
  store i32 1, ptr %11, align 4
  br label %26

20:                                               ; preds = %4
  %21 = load ptr, ptr %6, align 8, !tbaa !100
  %22 = load ptr, ptr %7, align 8, !tbaa !47
  %23 = load i64, ptr %8, align 8, !tbaa !85
  %24 = load ptr, ptr %9, align 8, !tbaa !8
  %25 = call ptr @zend_hash_str_update(ptr noundef %21, ptr noundef %22, i64 noundef %23, ptr noundef %24)
  store ptr %25, ptr %5, align 8
  store i32 1, ptr %11, align 4
  br label %26

26:                                               ; preds = %20, %15
  call void @llvm.lifetime.end.p0(i64 8, ptr %10) #21
  %27 = load ptr, ptr %5, align 8
  ret ptr %27
}

; Function Attrs: nounwind uwtable
define dso_local void @add_assoc_array_ex(ptr noundef %0, ptr noundef %1, i64 noundef %2, ptr noundef %3) #0 {
  %5 = alloca ptr, align 8
  %6 = alloca ptr, align 8
  %7 = alloca i64, align 8
  %8 = alloca ptr, align 8
  %9 = alloca %struct._zval_struct, align 8
  %10 = alloca ptr, align 8
  %11 = alloca ptr, align 8
  store ptr %0, ptr %5, align 8, !tbaa !8
  store ptr %1, ptr %6, align 8, !tbaa !47
  store i64 %2, ptr %7, align 8, !tbaa !85
  store ptr %3, ptr %8, align 8, !tbaa !100
  call void @llvm.lifetime.start.p0(i64 16, ptr %9) #21
  br label %12

12:                                               ; preds = %4
  call void @llvm.lifetime.start.p0(i64 8, ptr %10) #21
  %13 = load ptr, ptr %8, align 8, !tbaa !100
  store ptr %13, ptr %10, align 8, !tbaa !100
  call void @llvm.lifetime.start.p0(i64 8, ptr %11) #21
  store ptr %9, ptr %11, align 8, !tbaa !8
  %14 = load ptr, ptr %10, align 8, !tbaa !100
  %15 = load ptr, ptr %11, align 8, !tbaa !8
  %16 = getelementptr inbounds nuw %struct._zval_struct, ptr %15, i32 0, i32 0
  store ptr %14, ptr %16, align 8, !tbaa !44
  %17 = load ptr, ptr %11, align 8, !tbaa !8
  %18 = getelementptr inbounds nuw %struct._zval_struct, ptr %17, i32 0, i32 1
  store i32 775, ptr %18, align 8, !tbaa !44
  call void @llvm.lifetime.end.p0(i64 8, ptr %11) #21
  call void @llvm.lifetime.end.p0(i64 8, ptr %10) #21
  br label %19

19:                                               ; preds = %12
  br label %20

20:                                               ; preds = %19
  %21 = load ptr, ptr %5, align 8, !tbaa !8
  %22 = getelementptr inbounds nuw %struct._zval_struct, ptr %21, i32 0, i32 0
  %23 = load ptr, ptr %22, align 8, !tbaa !44
  %24 = load ptr, ptr %6, align 8, !tbaa !47
  %25 = load i64, ptr %7, align 8, !tbaa !85
  %26 = call ptr @zend_symtable_str_update(ptr noundef %23, ptr noundef %24, i64 noundef %25, ptr noundef %9)
  call void @llvm.lifetime.end.p0(i64 16, ptr %9) #21
  ret void
}